; Function Attrs: mustprogress uwtable
define internal void @_ZN12_GLOBAL__N_116inproc_transport6OrphanEv(ptr noundef nonnull align 8 dereferenceable(144) %0) unnamed_addr #13 align 2 personality ptr @__gxx_personality_v0 {
  %2 = alloca %"class.absl::lts_20240722::log_internal::LogMessage", align 8
  %3 = load atomic i8, ptr getelementptr inbounds nuw (i8, ptr @_ZN9grpc_core12inproc_traceE, i64 16) monotonic, align 8
  %4 = trunc i8 %3 to i1
  br i1 %4, label %5, label %.critedge11, !prof !9

5:                                                ; preds = %1
  call void @llvm.lifetime.start.p0(i64 16, ptr nonnull %2) #32
  call void @_ZN4absl12lts_2024072212log_internal10LogMessageC1EPKciNS2_7InfoTagE(ptr noundef nonnull align 8 dereferenceable(16) %2, ptr noundef nonnull @.str, i32 noundef 1194) #33
  invoke void @_ZN4absl12lts_2024072212log_internal10LogMessage19CopyToEncodedBufferILNS2_10StringTypeE0EEEvSt17basic_string_viewIcSt11char_traitsIcEE(ptr noundef nonnull align 8 dereferenceable(16) %2, i64 18, ptr nonnull @.str.19)
          to label %_ZN4absl12lts_2024072212log_internal10LogMessagelsILi19EEERS2_RAT__Kc.exit unwind label %13

_ZN4absl12lts_2024072212log_internal10LogMessagelsILi19EEERS2_RAT__Kc.exit: ; preds = %5
  %6 = invoke fastcc noundef nonnull align 8 dereferenceable(16) ptr @_ZN4absl12lts_2024072212log_internal10LogMessagelsIPN12_GLOBAL__N_116inproc_transportETnNSt9enable_ifIXntsr4absl16HasAbslStringifyIT_EE5valueEiE4typeELi0EEERS2_RKS8_(ptr noundef nonnull align 8 dereferenceable(16) %2, ptr nonnull %0)
          to label %7 unwind label %15

7:                                                ; preds = %_ZN4absl12lts_2024072212log_internal10LogMessagelsILi19EEERS2_RAT__Kc.exit
  call void @_ZN4absl12lts_2024072212log_internal10LogMessageD1Ev(ptr noundef nonnull align 8 dereferenceable(16) %2) #34
  call void @llvm.lifetime.end.p0(i64 16, ptr nonnull %2) #32
  br label %.critedge11

.critedge11:                                      ; preds = %1, %7
  %8 = getelementptr inbounds nuw i8, ptr %0, i64 16
  %9 = load ptr, ptr %8, align 8, !tbaa !38
  call void @gpr_mu_lock(ptr noundef %9)
  call fastcc void @_ZN12_GLOBAL__N_122close_transport_lockedEPNS_16inproc_transportE(ptr noundef %0)
  %10 = load ptr, ptr %8, align 8, !tbaa !38
  call void @gpr_mu_unlock(ptr noundef %10)
  %11 = getelementptr inbounds nuw i8, ptr %0, i64 128
  %12 = load ptr, ptr %11, align 8, !tbaa !68
  call fastcc void @_ZN12_GLOBAL__N_116inproc_transport5unrefEv(ptr noundef nonnull align 8 dereferenceable(144) %12)
  call fastcc void @_ZN12_GLOBAL__N_116inproc_transport5unrefEv(ptr noundef nonnull align 8 dereferenceable(144) %0)
  ret void

13:                                               ; preds = %5
  %14 = landingpad { ptr, i32 }
          cleanup
  br label %17

15:                                               ; preds = %_ZN4absl12lts_2024072212log_internal10LogMessagelsILi19EEERS2_RAT__Kc.exit
  %16 = landingpad { ptr, i32 }
          cleanup
  br label %17

17:                                               ; preds = %13, %15
  %.pn = phi { ptr, i32 } [ %16, %15 ], [ %14, %13 ]
  call void @_ZN4absl12lts_2024072212log_internal10LogMessageD1Ev(ptr noundef nonnull align 8 dereferenceable(16) %2) #34
  call void @llvm.lifetime.end.p0(i64 16, ptr nonnull %2) #32
  resume { ptr, i32 } %.pn
}